; Function Attrs: mustprogress uwtable
define range(i32 0, 2) i32 @proj_context_is_network_enabled(ptr noundef %0) local_unnamed_addr #3 {
  %2 = icmp eq ptr %0, null
  br i1 %2, label %3, label %5

3:                                                ; preds = %1
  %4 = tail call noundef ptr @_Z18pj_get_default_ctxv()
  br label %5

5:                                                ; preds = %3, %1
  %.0 = phi ptr [ %4, %3 ], [ %0, %1 ]
  tail call void @_Z11pj_load_iniP6pj_ctx(ptr noundef %.0)
  %6 = getelementptr inbounds nuw i8, ptr %.0, i64 416
  %7 = load i8, ptr %6, align 8, !tbaa !236, !range !53, !noundef !54
  %8 = zext nneg i8 %7 to i32
  ret i32 %8
}